target datalayout = "e-m:e-p270:32:32-p271:32:32-p272:64:64-i64:64-i128:128-f80:128-n8:16:32:64-S128"
target triple = "x86_64-pc-linux-gnu"

%struct.IndexAmRoutine = type { i32, i16, i16, i16, i8, i8, i8, i8, i8, i8, i8, i8, i8, i8, i8, i8, i8, i8, i8, i8, i8, i32, ptr, ptr, ptr, ptr, ptr, ptr, ptr, ptr, ptr, ptr, ptr, ptr, ptr, ptr, ptr, ptr, ptr, ptr, ptr, ptr, ptr, ptr, ptr, ptr, ptr, ptr }

@.str.1 = private unnamed_addr constant [8 x i8] c"amapi.c\00", align 1
@.str.7 = private unnamed_addr constant [52 x i8] c"could not translate compare type %u for index AM %u\00", align 1
@__func__.IndexAmTranslateCompareType = private unnamed_addr constant [28 x i8] c"IndexAmTranslateCompareType\00", align 1

; Function Attrs: nounwind uwtable
define dso_local zeroext i16 @IndexAmTranslateCompareType(i32 noundef %0, i32 noundef %1, i32 noundef %2, i32 noundef %3, i1 noundef zeroext %4) #0 {
  %6 = alloca i32, align 4
  %7 = alloca i32, align 4
  %8 = alloca i32, align 4
  %9 = alloca i32, align 4
  %10 = alloca i8, align 1
  %11 = alloca i16, align 2
  %12 = alloca ptr, align 8
  store i32 %0, ptr %6, align 4
  store i32 %1, ptr %7, align 4
  store i32 %2, ptr %8, align 4
  store i32 %3, ptr %9, align 4
  %13 = zext i1 %4 to i8
  store i8 %13, ptr %10, align 1
  call void @llvm.lifetime.start.p0(i64 2, ptr %11) #5
  call void @llvm.lifetime.start.p0(i64 8, ptr %12) #5
  %14 = load i32, ptr %7, align 4
  %15 = call ptr @GetIndexAmRoutineByAmId(i32 noundef %14, i1 noundef zeroext false)
  store ptr %15, ptr %12, align 8
  %16 = load ptr, ptr %12, align 8
  %17 = getelementptr inbounds nuw %struct.IndexAmRoutine, ptr %16, i32 0, i32 47
  %18 = load ptr, ptr %17, align 8
  %19 = icmp ne ptr %18, null
  br i1 %19, label %20, label %28

20:                                               ; preds = %5
  %21 = load ptr, ptr %12, align 8
  %22 = getelementptr inbounds nuw %struct.IndexAmRoutine, ptr %21, i32 0, i32 47
  %23 = load ptr, ptr %22, align 8
  %24 = load i32, ptr %6, align 4
  %25 = load i32, ptr %8, align 4
  %26 = load i32, ptr %9, align 4
  %27 = call zeroext i16 %23(i32 noundef %24, i32 noundef %25, i32 noundef %26)
  store i16 %27, ptr %11, align 2
  br label %29

28:                                               ; preds = %5
  store i16 0, ptr %11, align 2
  br label %29

29:                                               ; preds = %28, %20
  %30 = load i8, ptr %10, align 1, !range !4, !noundef !5
  %31 = trunc i8 %30 to i1
  br i1 %31, label %49, label %32

32:                                               ; preds = %29
  %33 = load i16, ptr %11, align 2
  %34 = zext i16 %33 to i32
  %35 = icmp eq i32 %34, 0
  br i1 %35, label %36, label %49

36:                                               ; preds = %32
  br label %37

37:                                               ; preds = %36
  br i1 true, label %38, label %40

38:                                               ; preds = %37
  %39 = call zeroext i1 @errstart_cold(i32 noundef 21, ptr noundef null) #6
  br i1 %39, label %42, label %46

40:                                               ; preds = %37
  %41 = call zeroext i1 @errstart(i32 noundef 21, ptr noundef null)
  br i1 %41, label %42, label %46

42:                                               ; preds = %40, %38
  %43 = load i32, ptr %6, align 4
  %44 = load i32, ptr %7, align 4
  %45 = call i32 (ptr, ...) @errmsg_internal(ptr noundef @.str.7, i32 noundef %43, i32 noundef %44)
  call void @errfinish(ptr noundef @.str.1, i32 noundef 155, ptr noundef @__func__.IndexAmTranslateCompareType)
  br label %46

46:                                               ; preds = %42, %40, %38
  unreachable

47:                                               ; No predecessors!
  br label %48

48:                                               ; preds = %47
  br label %49

49:                                               ; preds = %48, %32, %29
  %50 = load i16, ptr %11, align 2
  call void @llvm.lifetime.end.p0(i64 8, ptr %12) #5
  call void @llvm.lifetime.end.p0(i64 2, ptr %11) #5
  ret i16 %50
}