; Function Attrs: nounwind uwtable
define dso_local zeroext i16 @IndexAmTranslateCompareType(i32 noundef %0, i32 noundef %1, i32 noundef %2, i32 noundef %3, i1 noundef zeroext %4) local_unnamed_addr #0 {
  %6 = tail call ptr @GetIndexAmRoutineByAmId(i32 noundef %1, i1 noundef zeroext false)
  %7 = getelementptr inbounds nuw i8, ptr %6, i64 232
  %8 = load ptr, ptr %7, align 8
  %.not13 = icmp eq ptr %8, null
  br i1 %.not13, label %11, label %9

9:                                                ; preds = %5
  %10 = tail call zeroext i16 %8(i32 noundef %0, i32 noundef %2, i32 noundef %3) #4
  br label %11

11:                                               ; preds = %5, %9
  %.0 = phi i16 [ %10, %9 ], [ 0, %5 ]
  %12 = icmp ne i16 %.0, 0
  %or.cond.not = select i1 %4, i1 true, i1 %12
  br i1 %or.cond.not, label %16, label %13

13:                                               ; preds = %11
  %14 = tail call zeroext i1 @errstart_cold(i32 noundef 21, ptr noundef null) #5
  tail call void @llvm.assume(i1 %14)
  %15 = tail call i32 (ptr, ...) @errmsg_internal(ptr noundef nonnull @.str.7, i32 noundef %0, i32 noundef %1) #4
  tail call void @errfinish(ptr noundef nonnull @.str.1, i32 noundef 155, ptr noundef nonnull @__func__.IndexAmTranslateCompareType) #4
  unreachable

16:                                               ; preds = %11
  ret i16 %.0
}